target datalayout = "e-m:e-p270:32:32-p271:32:32-p272:64:64-i64:64-i128:128-f80:128-n8:16:32:64-S128"
target triple = "x86_64-pc-linux-gnu"

%struct.strbuf = type { i64, i64, ptr }

@stderr = external global ptr, align 8
@.str.14 = private unnamed_addr constant [1 x i8] zeroinitializer, align 1
@git_gettext_enabled = external global i32, align 4
@__const.report_invalid_attr.err = private unnamed_addr constant %struct.strbuf { i64 0, i64 0, ptr @strbuf_slopbuf }, align 8
@.str.16 = private unnamed_addr constant [35 x i8] c"%.*s is not a valid attribute name\00", align 1
@.str.17 = private unnamed_addr constant [11 x i8] c"%s: %s:%d\0A\00", align 1

; Function Attrs: inlinehint nounwind uwtable
define internal ptr @_(ptr noundef %0) #5 {
  %2 = alloca ptr, align 8
  %3 = alloca ptr, align 8
  store ptr %0, ptr %3, align 8, !tbaa !9
  %4 = load ptr, ptr %3, align 8, !tbaa !9
  %5 = load i8, ptr %4, align 1, !tbaa !17
  %6 = icmp ne i8 %5, 0
  br i1 %6, label %8, label %7

7:                                                ; preds = %1
  store ptr @.str.14, ptr %2, align 8
  br label %16

8:                                                ; preds = %1
  %9 = load i32, ptr @git_gettext_enabled, align 4, !tbaa !13
  %10 = icmp ne i32 %9, 0
  br i1 %10, label %13, label %11

11:                                               ; preds = %8
  %12 = load ptr, ptr %3, align 8, !tbaa !9
  store ptr %12, ptr %2, align 8
  br label %16

13:                                               ; preds = %8
  %14 = load ptr, ptr %3, align 8, !tbaa !9
  %15 = call ptr @dcgettext(ptr noundef null, ptr noundef %14, i32 noundef 5) #11
  store ptr %15, ptr %2, align 8
  br label %16

16:                                               ; preds = %13, %11, %7
  %17 = load ptr, ptr %2, align 8
  ret ptr %17
}

; Function Attrs: nounwind uwtable
define internal void @report_invalid_attr(ptr noundef %0, i64 noundef %1, ptr noundef %2, i32 noundef %3) #0 {
  %5 = alloca ptr, align 8
  %6 = alloca i64, align 8
  %7 = alloca ptr, align 8
  %8 = alloca i32, align 4
  %9 = alloca %struct.strbuf, align 8
  store ptr %0, ptr %5, align 8, !tbaa !9
  store i64 %1, ptr %6, align 8, !tbaa !11
  store ptr %2, ptr %7, align 8, !tbaa !9
  store i32 %3, ptr %8, align 4, !tbaa !13
  call void @llvm.lifetime.start.p0(i64 24, ptr %9) #11
  call void @llvm.memcpy.p0.p0.i64(ptr align 8 %9, ptr align 8 @__const.report_invalid_attr.err, i64 24, i1 false)
  %10 = call ptr @_(ptr noundef @.str.16)
  %11 = load i64, ptr %6, align 8, !tbaa !11
  %12 = trunc i64 %11 to i32
  %13 = load ptr, ptr %5, align 8, !tbaa !9
  call void (ptr, ptr, ...) @strbuf_addf(ptr noundef %9, ptr noundef %10, i32 noundef %12, ptr noundef %13)
  %14 = load ptr, ptr @stderr, align 8, !tbaa !21
  %15 = getelementptr inbounds nuw %struct.strbuf, ptr %9, i32 0, i32 2
  %16 = load ptr, ptr %15, align 8, !tbaa !18
  %17 = load ptr, ptr %7, align 8, !tbaa !9
  %18 = load i32, ptr %8, align 4, !tbaa !13
  %19 = call i32 (ptr, ptr, ...) @fprintf(ptr noundef %14, ptr noundef @.str.17, ptr noundef %16, ptr noundef %17, i32 noundef %18) #11
  call void @strbuf_release(ptr noundef %9)
  call void @llvm.lifetime.end.p0(i64 24, ptr %9) #11
  ret void
}