; Function Attrs: nounwind uwtable
define internal fastcc void @report_invalid_attr(ptr noundef %0, i64 noundef %1, ptr noundef %2, i32 noundef %3) unnamed_addr #1 {
  %5 = alloca %struct.strbuf, align 8
  call void @llvm.lifetime.start.p0(i64 24, ptr nonnull %5) #21
  call void @llvm.memcpy.p0.p0.i64(ptr noundef nonnull align 8 dereferenceable(24) %5, ptr noundef nonnull align 8 dereferenceable(24) @__const.git_pathdup.path, i64 24, i1 false)
  %6 = load i32, ptr @git_gettext_enabled, align 4, !tbaa !22
  %.not4.i = icmp eq i32 %6, 0
  br i1 %.not4.i, label %_.exit, label %7

7:                                                ; preds = %4
  %8 = tail call ptr @dcgettext(ptr noundef null, ptr noundef nonnull @.str.16, i32 noundef 5) #21
  br label %_.exit

_.exit:                                           ; preds = %4, %7
  %.0.i = phi ptr [ %8, %7 ], [ @.str.16, %4 ]
  %9 = trunc i64 %1 to i32
  call void (ptr, ptr, ...) @strbuf_addf(ptr noundef nonnull %5, ptr noundef %.0.i, i32 noundef %9, ptr noundef %0) #21
  %10 = load ptr, ptr @stderr, align 8, !tbaa !27
  %11 = getelementptr inbounds nuw i8, ptr %5, i64 16
  %12 = load ptr, ptr %11, align 8, !tbaa !23
  %13 = call i32 (ptr, ptr, ...) @fprintf(ptr noundef %10, ptr noundef nonnull @.str.17, ptr noundef %12, ptr noundef %2, i32 noundef %3) #23
  call void @strbuf_release(ptr noundef nonnull %5) #21
  call void @llvm.lifetime.end.p0(i64 24, ptr nonnull %5) #21
  ret void
}